; Function Attrs: mustprogress uwtable
define noundef zeroext i1 @_ZNK6icu_7512PluralFormatneERKNS_6FormatE(ptr noundef nonnull align 8 dereferenceable(712) %this, ptr noundef nonnull align 8 dereferenceable(322) %other) unnamed_addr #1 align 2 {
entry:
  %vtable = load ptr, ptr %this, align 8
  %vfn = getelementptr inbounds i8, ptr %vtable, i64 24
  %0 = load ptr, ptr %vfn, align 8
  %call = tail call noundef zeroext i1 %0(ptr noundef nonnull align 8 dereferenceable(712) %this, ptr noundef nonnull align 8 dereferenceable(322) %other)
  %lnot = xor i1 %call, true
  ret i1 %lnot
}